; Function Attrs: nounwind uwtable
define void @lv_indev_reset_long_press(ptr noundef captures(none) initializes((32, 40)) %0) local_unnamed_addr #0 {
  %2 = getelementptr inbounds nuw i8, ptr %0, i64 28
  %3 = load i8, ptr %2, align 4
  %4 = and i8 %3, -2
  store i8 %4, ptr %2, align 4
  %5 = tail call i32 @lv_tick_get() #11
  %6 = getelementptr inbounds nuw i8, ptr %0, i64 36
  store i32 %5, ptr %6, align 4, !tbaa !58
  %7 = tail call i32 @lv_tick_get() #11
  %8 = getelementptr inbounds nuw i8, ptr %0, i64 32
  store i32 %7, ptr %8, align 8, !tbaa !57
  ret void
}